; Function Attrs: mustprogress uwtable
define hidden void @_ZNK10macro_util6mk_addEjPKP4exprP4sortR7obj_refIS0_11ast_managerE(ptr noundef nonnull align 8 dereferenceable(320) %0, i32 noundef %1, ptr noundef %2, ptr noundef %3, ptr noundef nonnull align 8 captures(none) dereferenceable(16) %4) local_unnamed_addr #3 align 2 {
  switch i32 %1, label %36 [
    i32 0, label %6
    i32 1, label %21
  ]

6:                                                ; preds = %5
  %7 = tail call noundef ptr @_ZNK10macro_util7mk_zeroEP4sort(ptr noundef nonnull align 8 dereferenceable(320) %0, ptr noundef %3)
  %.not.i = icmp eq ptr %7, null
  br i1 %.not.i, label %11, label %_ZN11ast_manager7inc_refEP3ast.exit.i

_ZN11ast_manager7inc_refEP3ast.exit.i:            ; preds = %6
  %8 = getelementptr inbounds nuw i8, ptr %7, i64 8
  %9 = load i32, ptr %8, align 4, !tbaa !74
  %10 = add i32 %9, 1
  store i32 %10, ptr %8, align 4, !tbaa !74
  br label %11

11:                                               ; preds = %_ZN11ast_manager7inc_refEP3ast.exit.i, %6
  %12 = load ptr, ptr %4, align 8, !tbaa !35
  %.not.i4.i = icmp eq ptr %12, null
  br i1 %.not.i4.i, label %.loopexit.sink.split, label %13

13:                                               ; preds = %11
  %14 = getelementptr inbounds nuw i8, ptr %4, i64 8
  %15 = load ptr, ptr %14, align 8, !tbaa !75
  %16 = getelementptr inbounds nuw i8, ptr %12, i64 8
  %17 = load i32, ptr %16, align 4, !tbaa !74
  %18 = add i32 %17, -1
  store i32 %18, ptr %16, align 4, !tbaa !74
  %19 = icmp eq i32 %18, 0
  br i1 %19, label %20, label %.loopexit.sink.split

20:                                               ; preds = %13
  tail call void @_ZN11ast_manager11delete_nodeEP3ast(ptr noundef nonnull align 8 dereferenceable(976) %15, ptr noundef nonnull %12)
  br label %.loopexit.sink.split

21:                                               ; preds = %5
  %22 = load ptr, ptr %2, align 8, !tbaa !73
  %.not.i18 = icmp eq ptr %22, null
  br i1 %.not.i18, label %26, label %_ZN11ast_manager7inc_refEP3ast.exit.i19

_ZN11ast_manager7inc_refEP3ast.exit.i19:          ; preds = %21
  %23 = getelementptr inbounds nuw i8, ptr %22, i64 8
  %24 = load i32, ptr %23, align 4, !tbaa !74
  %25 = add i32 %24, 1
  store i32 %25, ptr %23, align 4, !tbaa !74
  br label %26

26:                                               ; preds = %_ZN11ast_manager7inc_refEP3ast.exit.i19, %21
  %27 = load ptr, ptr %4, align 8, !tbaa !35
  %.not.i4.i20 = icmp eq ptr %27, null
  br i1 %.not.i4.i20, label %.loopexit.sink.split, label %28

28:                                               ; preds = %26
  %29 = getelementptr inbounds nuw i8, ptr %4, i64 8
  %30 = load ptr, ptr %29, align 8, !tbaa !75
  %31 = getelementptr inbounds nuw i8, ptr %27, i64 8
  %32 = load i32, ptr %31, align 4, !tbaa !74
  %33 = add i32 %32, -1
  store i32 %33, ptr %31, align 4, !tbaa !74
  %34 = icmp eq i32 %33, 0
  br i1 %34, label %35, label %.loopexit.sink.split

35:                                               ; preds = %28
  tail call void @_ZN11ast_manager11delete_nodeEP3ast(ptr noundef nonnull align 8 dereferenceable(976) %30, ptr noundef nonnull %27)
  br label %.loopexit.sink.split

36:                                               ; preds = %5
  %37 = getelementptr inbounds nuw i8, ptr %0, i64 8
  %38 = tail call noundef zeroext i1 @_ZNK14bv_recognizers10is_bv_sortEPK4sort(ptr noundef nonnull align 4 dereferenceable(4) %37, ptr noundef %3)
  br i1 %38, label %39, label %_ZNK10arith_util6mk_addEjPKP4expr.exit

39:                                               ; preds = %36
  %40 = load ptr, ptr %2, align 8, !tbaa !73
  %.not.i22 = icmp eq ptr %40, null
  br i1 %.not.i22, label %44, label %_ZN11ast_manager7inc_refEP3ast.exit.i23

_ZN11ast_manager7inc_refEP3ast.exit.i23:          ; preds = %39
  %41 = getelementptr inbounds nuw i8, ptr %40, i64 8
  %42 = load i32, ptr %41, align 4, !tbaa !74
  %43 = add i32 %42, 1
  store i32 %43, ptr %41, align 4, !tbaa !74
  br label %44

44:                                               ; preds = %_ZN11ast_manager7inc_refEP3ast.exit.i23, %39
  %45 = load ptr, ptr %4, align 8, !tbaa !35
  %.not.i4.i24 = icmp eq ptr %45, null
  br i1 %.not.i4.i24, label %.lr.ph, label %46

46:                                               ; preds = %44
  %47 = getelementptr inbounds nuw i8, ptr %4, i64 8
  %48 = load ptr, ptr %47, align 8, !tbaa !75
  %49 = getelementptr inbounds nuw i8, ptr %45, i64 8
  %50 = load i32, ptr %49, align 4, !tbaa !74
  %51 = add i32 %50, -1
  store i32 %51, ptr %49, align 4, !tbaa !74
  %52 = icmp eq i32 %51, 0
  br i1 %52, label %53, label %.lr.ph

53:                                               ; preds = %46
  tail call void @_ZN11ast_manager11delete_nodeEP3ast(ptr noundef nonnull align 8 dereferenceable(976) %48, ptr noundef nonnull %45)
  br label %.lr.ph

.lr.ph:                                           ; preds = %53, %46, %44
  store ptr %40, ptr %4, align 8, !tbaa !35
  %54 = getelementptr inbounds nuw i8, ptr %0, i64 16
  %55 = getelementptr inbounds nuw i8, ptr %4, i64 8
  br label %56

56:                                               ; preds = %.lr.ph, %_ZN7obj_refI4expr11ast_managerEaSEPS0_.exit29
  %57 = phi ptr [ %40, %.lr.ph ], [ %63, %_ZN7obj_refI4expr11ast_managerEaSEPS0_.exit29 ]
  %.035 = phi i32 [ %1, %.lr.ph ], [ %58, %_ZN7obj_refI4expr11ast_managerEaSEPS0_.exit29 ]
  %.01734 = phi ptr [ %2, %.lr.ph ], [ %59, %_ZN7obj_refI4expr11ast_managerEaSEPS0_.exit29 ]
  %58 = add i32 %.035, -1
  %59 = getelementptr inbounds nuw i8, ptr %.01734, i64 8
  %60 = load ptr, ptr %59, align 8, !tbaa !73
  %61 = load ptr, ptr %54, align 8, !tbaa !76
  %62 = load i32, ptr %37, align 8, !tbaa !64
  %63 = tail call noundef ptr @_ZN11ast_manager6mk_appEiiP4exprS1_(ptr noundef nonnull align 8 dereferenceable(976) %61, i32 noundef %62, i32 noundef 4, ptr noundef %57, ptr noundef %60)
  %.not.i26 = icmp eq ptr %63, null
  br i1 %.not.i26, label %67, label %_ZN11ast_manager7inc_refEP3ast.exit.i27

_ZN11ast_manager7inc_refEP3ast.exit.i27:          ; preds = %56
  %64 = getelementptr inbounds nuw i8, ptr %63, i64 8
  %65 = load i32, ptr %64, align 4, !tbaa !74
  %66 = add i32 %65, 1
  store i32 %66, ptr %64, align 4, !tbaa !74
  br label %67

67:                                               ; preds = %_ZN11ast_manager7inc_refEP3ast.exit.i27, %56
  %68 = load ptr, ptr %4, align 8, !tbaa !35
  %.not.i4.i28 = icmp eq ptr %68, null
  br i1 %.not.i4.i28, label %_ZN7obj_refI4expr11ast_managerEaSEPS0_.exit29, label %69

69:                                               ; preds = %67
  %70 = load ptr, ptr %55, align 8, !tbaa !75
  %71 = getelementptr inbounds nuw i8, ptr %68, i64 8
  %72 = load i32, ptr %71, align 4, !tbaa !74
  %73 = add i32 %72, -1
  store i32 %73, ptr %71, align 4, !tbaa !74
  %74 = icmp eq i32 %73, 0
  br i1 %74, label %75, label %_ZN7obj_refI4expr11ast_managerEaSEPS0_.exit29

75:                                               ; preds = %69
  tail call void @_ZN11ast_manager11delete_nodeEP3ast(ptr noundef nonnull align 8 dereferenceable(976) %70, ptr noundef nonnull %68)
  br label %_ZN7obj_refI4expr11ast_managerEaSEPS0_.exit29

_ZN7obj_refI4expr11ast_managerEaSEPS0_.exit29:    ; preds = %67, %69, %75
  store ptr %63, ptr %4, align 8, !tbaa !35
  %76 = icmp ugt i32 %58, 1
  br i1 %76, label %56, label %.loopexit, !llvm.loop !77

_ZNK10arith_util6mk_addEjPKP4expr.exit:           ; preds = %36
  %77 = getelementptr inbounds nuw i8, ptr %0, i64 32
  %78 = load ptr, ptr %77, align 8, !tbaa !78
  %79 = tail call noundef ptr @_ZN11ast_manager6mk_appEiijPKP4expr(ptr noundef nonnull align 8 dereferenceable(976) %78, i32 noundef 5, i32 noundef 6, i32 noundef %1, ptr noundef %2)
  %.not.i30 = icmp eq ptr %79, null
  br i1 %.not.i30, label %83, label %_ZN11ast_manager7inc_refEP3ast.exit.i31

_ZN11ast_manager7inc_refEP3ast.exit.i31:          ; preds = %_ZNK10arith_util6mk_addEjPKP4expr.exit
  %80 = getelementptr inbounds nuw i8, ptr %79, i64 8
  %81 = load i32, ptr %80, align 4, !tbaa !74
  %82 = add i32 %81, 1
  store i32 %82, ptr %80, align 4, !tbaa !74
  br label %83

83:                                               ; preds = %_ZN11ast_manager7inc_refEP3ast.exit.i31, %_ZNK10arith_util6mk_addEjPKP4expr.exit
  %84 = load ptr, ptr %4, align 8, !tbaa !35
  %.not.i4.i32 = icmp eq ptr %84, null
  br i1 %.not.i4.i32, label %.loopexit.sink.split, label %85

85:                                               ; preds = %83
  %86 = getelementptr inbounds nuw i8, ptr %4, i64 8
  %87 = load ptr, ptr %86, align 8, !tbaa !75
  %88 = getelementptr inbounds nuw i8, ptr %84, i64 8
  %89 = load i32, ptr %88, align 4, !tbaa !74
  %90 = add i32 %89, -1
  store i32 %90, ptr %88, align 4, !tbaa !74
  %91 = icmp eq i32 %90, 0
  br i1 %91, label %92, label %.loopexit.sink.split

92:                                               ; preds = %85
  tail call void @_ZN11ast_manager11delete_nodeEP3ast(ptr noundef nonnull align 8 dereferenceable(976) %87, ptr noundef nonnull %84)
  br label %.loopexit.sink.split

.loopexit.sink.split:                             ; preds = %92, %85, %83, %35, %28, %26, %20, %13, %11
  %.sink = phi ptr [ %7, %11 ], [ %7, %13 ], [ %7, %20 ], [ %22, %26 ], [ %22, %28 ], [ %22, %35 ], [ %79, %83 ], [ %79, %85 ], [ %79, %92 ]
  store ptr %.sink, ptr %4, align 8, !tbaa !35
  br label %.loopexit

.loopexit:                                        ; preds = %_ZN7obj_refI4expr11ast_managerEaSEPS0_.exit29, %.loopexit.sink.split
  ret void
}